target datalayout = "e-m:e-p270:32:32-p271:32:32-p272:64:64-i64:64-i128:128-f80:128-n8:16:32:64-S128"
target triple = "x86_64-pc-linux-gnu"

%"class.pxrInternal_v0_24__pxrReserved__::TraceEvent" = type { %"class.pxrInternal_v0_24__pxrReserved__::TraceKey", i32, i8, i8, i64, %"union.std::aligned_storage<8, 8>::type" }
%"class.pxrInternal_v0_24__pxrReserved__::TraceKey" = type { ptr }
%"union.std::aligned_storage<8, 8>::type" = type { [8 x i8] }

; Function Attrs: mustprogress nounwind uwtable
define noundef double @_ZNK32pxrInternal_v0_24__pxrReserved__10TraceEvent15GetCounterValueEv(ptr noundef nonnull align 8 dereferenceable(32) %0) #0 align 2 {
  %2 = alloca ptr, align 8
  store ptr %0, ptr %2, align 8
  %3 = load ptr, ptr %2, align 8
  %4 = getelementptr inbounds nuw %"class.pxrInternal_v0_24__pxrReserved__::TraceEvent", ptr %3, i32 0, i32 3
  %5 = load i8, ptr %4, align 1
  %6 = icmp eq i8 %5, 4
  br i1 %6, label %11, label %7

7:                                                ; preds = %1
  %8 = getelementptr inbounds nuw %"class.pxrInternal_v0_24__pxrReserved__::TraceEvent", ptr %3, i32 0, i32 3
  %9 = load i8, ptr %8, align 1
  %10 = icmp eq i8 %9, 5
  br i1 %10, label %11, label %14

11:                                               ; preds = %7, %1
  %12 = getelementptr inbounds nuw %"class.pxrInternal_v0_24__pxrReserved__::TraceEvent", ptr %3, i32 0, i32 5
  %13 = load double, ptr %12, align 8
  br label %15

14:                                               ; preds = %7
  br label %15

15:                                               ; preds = %14, %11
  %16 = phi double [ %13, %11 ], [ 0.000000e+00, %14 ]
  ret double %16
}