; Function Attrs: mustprogress nofree norecurse nosync nounwind willreturn memory(argmem: read) uwtable
define noundef double @_ZNK32pxrInternal_v0_24__pxrReserved__10TraceEvent15GetCounterValueEv(ptr nocapture noundef nonnull readonly align 8 dereferenceable(32) %0) local_unnamed_addr #0 align 2 {
  %2 = getelementptr inbounds nuw i8, ptr %0, i64 13
  %3 = load i8, ptr %2, align 1
  %4 = and i8 %3, -2
  %switch = icmp eq i8 %4, 4
  %5 = getelementptr inbounds nuw i8, ptr %0, i64 24
  %6 = load double, ptr %5, align 8
  %7 = select i1 %switch, double %6, double 0.000000e+00
  ret double %7
}